target datalayout = "e-m:e-p270:32:32-p271:32:32-p272:64:64-i64:64-i128:128-f80:128-n8:16:32:64-S128"
target triple = "x86_64-pc-linux-gnu"

@proto_register_adb_service.ett = internal global [5 x ptr] [ptr @ett_adb_service, ptr @ett_length, ptr @ett_version, ptr @ett_pixel, ptr @ett_data], align 16
@fragments = internal global ptr null, align 8
@framebuffer_infos = internal global ptr null, align 8
@continuation_infos = internal global ptr null, align 8
@.str.66 = private unnamed_addr constant [29 x i8] c"Android Debug Bridge Service\00", align 1
@.str.67 = private unnamed_addr constant [12 x i8] c"ADB Service\00", align 1
@.str.68 = private unnamed_addr constant [12 x i8] c"adb_service\00", align 1
@proto_adb_service = internal global i32 0, align 4
@adb_service_handle = internal global ptr null, align 8
@.str.69 = private unnamed_addr constant [8 x i8] c"version\00", align 1
@.str.70 = private unnamed_addr constant [64 x i8] c"ADB Service protocol version is compatible prior to: adb 1.0.31\00", align 1
@.str.71 = private unnamed_addr constant [49 x i8] c"Version of protocol supported by this dissector.\00", align 1
@.str.72 = private unnamed_addr constant [25 x i8] c"framebuffer_more_details\00", align 1
@.str.73 = private unnamed_addr constant [44 x i8] c"Dissect more detail for framebuffer service\00", align 1
@pref_dissect_more_detail_framebuffer = internal global i8 0, align 1

; Function Attrs: null_pointer_is_valid sspstrong uwtable
define hidden void @proto_register_adb_service() #0 {
  %1 = alloca ptr, align 8
  %2 = alloca ptr, align 8
  call void @llvm.lifetime.start.p0(i64 8, ptr %1) #9
  call void @llvm.lifetime.start.p0(i64 8, ptr %2) #9
  %3 = call ptr @wmem_epan_scope()
  %4 = call ptr @wmem_file_scope()
  %5 = call noalias ptr @wmem_tree_new_autoreset(ptr noundef %3, ptr noundef %4)
  store ptr %5, ptr @fragments, align 8
  %6 = call ptr @wmem_epan_scope()
  %7 = call ptr @wmem_file_scope()
  %8 = call noalias ptr @wmem_tree_new_autoreset(ptr noundef %6, ptr noundef %7)
  store ptr %8, ptr @framebuffer_infos, align 8
  %9 = call ptr @wmem_epan_scope()
  %10 = call ptr @wmem_file_scope()
  %11 = call noalias ptr @wmem_tree_new_autoreset(ptr noundef %9, ptr noundef %10)
  store ptr %11, ptr @continuation_infos, align 8
  %12 = call i32 @proto_register_protocol(ptr noundef @.str.66, ptr noundef @.str.67, ptr noundef @.str.68)
  store i32 %12, ptr @proto_adb_service, align 4
  %13 = load i32, ptr @proto_adb_service, align 4
  %14 = call ptr @register_dissector(ptr noundef @.str.68, ptr noundef @dissect_adb_service, i32 noundef %13)
  store ptr %14, ptr @adb_service_handle, align 8
  %15 = load i32, ptr @proto_adb_service, align 4
  call void @proto_register_field_array(i32 noundef %15, ptr noundef @proto_register_adb_service.hf, i32 noundef 34)
  call void @proto_register_subtree_array(ptr noundef @proto_register_adb_service.ett, i32 noundef 5)
  %16 = load i32, ptr @proto_adb_service, align 4
  %17 = call ptr @expert_register_protocol(i32 noundef %16)
  store ptr %17, ptr %2, align 8
  %18 = load ptr, ptr %2, align 8
  call void @expert_register_field_array(ptr noundef %18, ptr noundef @proto_register_adb_service.ei, i32 noundef 1)
  %19 = load i32, ptr @proto_adb_service, align 4
  %20 = call ptr @prefs_register_protocol(i32 noundef %19, ptr noundef null)
  store ptr %20, ptr %1, align 8
  %21 = load ptr, ptr %1, align 8
  call void @prefs_register_static_text_preference(ptr noundef %21, ptr noundef @.str.69, ptr noundef @.str.70, ptr noundef @.str.71)
  %22 = load ptr, ptr %1, align 8
  call void @prefs_register_bool_preference(ptr noundef %22, ptr noundef @.str.72, ptr noundef @.str.73, ptr noundef @.str.73, ptr noundef @pref_dissect_more_detail_framebuffer)
  call void @llvm.lifetime.end.p0(i64 8, ptr %2) #9
  call void @llvm.lifetime.end.p0(i64 8, ptr %1) #9
  ret void
}