; Function Attrs: null_pointer_is_valid sspstrong uwtable
define hidden void @proto_register_adb_service() local_unnamed_addr #0 {
  %1 = tail call ptr @wmem_epan_scope()
  %2 = tail call ptr @wmem_file_scope()
  %3 = tail call noalias ptr @wmem_tree_new_autoreset(ptr noundef %1, ptr noundef %2)
  store ptr %3, ptr @fragments, align 8
  %4 = tail call ptr @wmem_epan_scope()
  %5 = tail call ptr @wmem_file_scope()
  %6 = tail call noalias ptr @wmem_tree_new_autoreset(ptr noundef %4, ptr noundef %5)
  store ptr %6, ptr @framebuffer_infos, align 8
  %7 = tail call ptr @wmem_epan_scope()
  %8 = tail call ptr @wmem_file_scope()
  %9 = tail call noalias ptr @wmem_tree_new_autoreset(ptr noundef %7, ptr noundef %8)
  store ptr %9, ptr @continuation_infos, align 8
  %10 = tail call i32 @proto_register_protocol(ptr noundef nonnull @.str.66, ptr noundef nonnull @.str.67, ptr noundef nonnull @.str.68)
  store i32 %10, ptr @proto_adb_service, align 4
  %11 = tail call ptr @register_dissector(ptr noundef nonnull @.str.68, ptr noundef nonnull @dissect_adb_service, i32 noundef %10)
  store ptr %11, ptr @adb_service_handle, align 8
  %12 = load i32, ptr @proto_adb_service, align 4
  tail call void @proto_register_field_array(i32 noundef %12, ptr noundef nonnull @proto_register_adb_service.hf, i32 noundef 34)
  tail call void @proto_register_subtree_array(ptr noundef nonnull @proto_register_adb_service.ett, i32 noundef 5)
  %13 = load i32, ptr @proto_adb_service, align 4
  %14 = tail call ptr @expert_register_protocol(i32 noundef %13)
  tail call void @expert_register_field_array(ptr noundef %14, ptr noundef nonnull @proto_register_adb_service.ei, i32 noundef 1)
  %15 = load i32, ptr @proto_adb_service, align 4
  %16 = tail call ptr @prefs_register_protocol(i32 noundef %15, ptr noundef null)
  tail call void @prefs_register_static_text_preference(ptr noundef %16, ptr noundef nonnull @.str.69, ptr noundef nonnull @.str.70, ptr noundef nonnull @.str.71)
  tail call void @prefs_register_bool_preference(ptr noundef %16, ptr noundef nonnull @.str.72, ptr noundef nonnull @.str.73, ptr noundef nonnull @.str.73, ptr noundef nonnull @pref_dissect_more_detail_framebuffer)
  ret void
}